target datalayout = "e-m:e-p270:32:32-p271:32:32-p272:64:64-i64:64-i128:128-f80:128-n8:16:32:64-S128"
target triple = "x86_64-pc-linux-gnu"

%struct.zstream = type { i64, i64, i64, i64, %struct.z_stream_s, ptr }
%struct.z_stream_s = type { ptr, i32, i64, ptr, i32, i64, ptr, ptr, ptr, ptr, ptr, i32, i64, i64 }
%struct.RString = type { %struct.RBasic, i64, %union.anon }
%struct.RBasic = type { i64, i64 }
%union.anon = type { %struct.anon }
%struct.anon = type { ptr, %union.anon.0 }
%union.anon.0 = type { i64 }
%struct.anon.1 = type { [1 x i8] }

; Function Attrs: inlinehint nounwind sspstrong willreturn memory(read) uwtable
define internal i64 @RB_FL_TEST_RAW(i64 noundef %0, i64 noundef %1) #6 {
  %3 = alloca i64, align 8
  %4 = alloca i64, align 8
  store i64 %0, ptr %3, align 8, !tbaa !6
  store i64 %1, ptr %4, align 8, !tbaa !6
  %5 = load i64, ptr %3, align 8, !tbaa !6
  %6 = inttoptr i64 %5 to ptr
  %7 = getelementptr inbounds nuw %struct.RBasic, ptr %6, i32 0, i32 0
  %8 = load i64, ptr %7, align 8, !tbaa !91
  %9 = load i64, ptr %4, align 8, !tbaa !6
  %10 = and i64 %8, %9
  ret i64 %10
}

; Function Attrs: inlinehint nounwind sspstrong willreturn memory(read) uwtable
define internal zeroext i1 @RB_FL_ANY_RAW(i64 noundef %0, i64 noundef %1) #6 {
  %3 = alloca i64, align 8
  %4 = alloca i64, align 8
  store i64 %0, ptr %3, align 8, !tbaa !6
  store i64 %1, ptr %4, align 8, !tbaa !6
  %5 = load i64, ptr %3, align 8, !tbaa !6
  %6 = load i64, ptr %4, align 8, !tbaa !6
  %7 = call i64 @RB_FL_TEST_RAW(i64 noundef %5, i64 noundef %6) #25
  %8 = icmp ne i64 %7, 0
  ret i1 %8
}

; Function Attrs: inlinehint nounwind sspstrong willreturn memory(read) uwtable
define internal i64 @RSTRING_LEN(i64 noundef %0) #6 {
  %2 = alloca i64, align 8
  store i64 %0, ptr %2, align 8, !tbaa !6
  %3 = load i64, ptr %2, align 8, !tbaa !6
  %4 = inttoptr i64 %3 to ptr
  %5 = getelementptr inbounds nuw %struct.RString, ptr %4, i32 0, i32 1
  %6 = load i64, ptr %5, align 8, !tbaa !88
  ret i64 %6
}

; Function Attrs: alwaysinline nounwind
define internal ptr @memmove.inline(ptr nonnull %0, ptr nonnull %1, i64 %2) #16 {
  %4 = alloca ptr, align 8
  %5 = alloca ptr, align 8
  %6 = alloca i64, align 8
  store ptr %0, ptr %4, align 8, !tbaa !77
  store ptr %1, ptr %5, align 8, !tbaa !77
  store i64 %2, ptr %6, align 8, !tbaa !6
  %7 = load ptr, ptr %4, align 8, !tbaa !77
  %8 = load ptr, ptr %5, align 8, !tbaa !77
  %9 = load i64, ptr %6, align 8, !tbaa !6
  %10 = load ptr, ptr %4, align 8, !tbaa !77
  %11 = call i64 @llvm.objectsize.i64.p0(ptr %10, i1 false, i1 true, i1 false)
  %12 = call ptr @__memmove_chk(ptr noundef %7, ptr noundef %8, i64 noundef %9, i64 noundef %11) #23
  ret ptr %12
}

; Function Attrs: inlinehint nounwind sspstrong willreturn memory(read, argmem: readwrite) uwtable
define internal void @rbimpl_rstring_getmem(ptr dead_on_unwind noalias writable sret(%struct.RString) align 8 %0, i64 noundef %1) #9 {
  %3 = alloca i64, align 8
  store i64 %1, ptr %3, align 8, !tbaa !6
  %4 = load i64, ptr %3, align 8, !tbaa !6
  %5 = call zeroext i1 @RB_FL_ANY_RAW(i64 noundef %4, i64 noundef 8192) #25
  br i1 %5, label %6, label %9

6:                                                ; preds = %2
  %7 = load i64, ptr %3, align 8, !tbaa !6
  %8 = inttoptr i64 %7 to ptr
  call void @llvm.memcpy.p0.p0.i64(ptr align 8 %0, ptr align 8 %8, i64 40, i1 false), !tbaa.struct !92
  br label %20

9:                                                ; preds = %2
  %10 = load i64, ptr %3, align 8, !tbaa !6
  %11 = call i64 @RSTRING_LEN(i64 noundef %10) #25
  %12 = getelementptr inbounds nuw %struct.RString, ptr %0, i32 0, i32 1
  store i64 %11, ptr %12, align 8, !tbaa !88
  %13 = load i64, ptr %3, align 8, !tbaa !6
  %14 = inttoptr i64 %13 to ptr
  %15 = getelementptr inbounds nuw %struct.RString, ptr %14, i32 0, i32 2
  %16 = getelementptr inbounds nuw %struct.anon.1, ptr %15, i32 0, i32 0
  %17 = getelementptr inbounds [1 x i8], ptr %16, i64 0, i64 0
  %18 = getelementptr inbounds nuw %struct.RString, ptr %0, i32 0, i32 2
  %19 = getelementptr inbounds nuw %struct.anon, ptr %18, i32 0, i32 0
  store ptr %17, ptr %19, align 8, !tbaa !68
  br label %20

20:                                               ; preds = %9, %6
  ret void
}

; Function Attrs: inlinehint nounwind sspstrong willreturn memory(read) uwtable
define internal i64 @RBASIC_CLASS(i64 noundef %0) #6 {
  %2 = alloca i64, align 8
  store i64 %0, ptr %2, align 8, !tbaa !6
  %3 = load i64, ptr %2, align 8, !tbaa !6
  %4 = inttoptr i64 %3 to ptr
  %5 = getelementptr inbounds nuw %struct.RBasic, ptr %4, i32 0, i32 1
  %6 = load i64, ptr %5, align 8, !tbaa !98
  ret i64 %6
}

; Function Attrs: inlinehint nounwind sspstrong willreturn memory(none) uwtable
define internal zeroext i1 @RB_NIL_P(i64 noundef %0) #5 {
  %2 = alloca i64, align 8
  store i64 %0, ptr %2, align 8, !tbaa !6
  %3 = load i64, ptr %2, align 8, !tbaa !6
  %4 = icmp eq i64 %3, 4
  ret i1 %4
}

; Function Attrs: nounwind sspstrong uwtable
define internal void @zstream_discard_input(ptr noundef %0, i64 noundef %1) #0 {
  %3 = alloca ptr, align 8
  %4 = alloca i64, align 8
  %5 = alloca ptr, align 8
  %6 = alloca i64, align 8
  %7 = alloca i64, align 8
  %8 = alloca %struct.RString, align 8
  %9 = alloca i64, align 8
  store ptr %0, ptr %3, align 8, !tbaa !21
  store i64 %1, ptr %4, align 8, !tbaa !6
  %10 = load ptr, ptr %3, align 8, !tbaa !21
  %11 = getelementptr inbounds nuw %struct.zstream, ptr %10, i32 0, i32 2
  %12 = load i64, ptr %11, align 8, !tbaa !28
  %13 = call zeroext i1 @RB_NIL_P(i64 noundef %12) #24
  br i1 %13, label %14, label %15

14:                                               ; preds = %2
  br label %89

15:                                               ; preds = %2
  %16 = load ptr, ptr %3, align 8, !tbaa !21
  %17 = getelementptr inbounds nuw %struct.zstream, ptr %16, i32 0, i32 2
  %18 = load i64, ptr %17, align 8, !tbaa !28
  %19 = call i64 @RBASIC_CLASS(i64 noundef %18) #25
  %20 = icmp eq i64 %19, 0
  br i1 %20, label %21, label %63

21:                                               ; preds = %15
  call void @llvm.lifetime.start.p0(i64 8, ptr %5) #23
  call void @llvm.lifetime.start.p0(i64 8, ptr %6) #23
  call void @llvm.lifetime.start.p0(i64 8, ptr %7) #23
  call void @llvm.lifetime.start.p0(i64 40, ptr %8) #23
  %22 = load ptr, ptr %3, align 8, !tbaa !21
  %23 = getelementptr inbounds nuw %struct.zstream, ptr %22, i32 0, i32 2
  %24 = load i64, ptr %23, align 8, !tbaa !28
  call void @rbimpl_rstring_getmem(ptr dead_on_unwind writable sret(%struct.RString) align 8 %8, i64 noundef %24) #28
  %25 = getelementptr inbounds nuw %struct.RString, ptr %8, i32 0, i32 2
  %26 = getelementptr inbounds nuw %struct.anon, ptr %25, i32 0, i32 0
  %27 = load ptr, ptr %26, align 8, !tbaa !68
  store ptr %27, ptr %5, align 8, !tbaa !19
  %28 = getelementptr inbounds nuw %struct.RString, ptr %8, i32 0, i32 1
  %29 = load i64, ptr %28, align 8, !tbaa !88
  store i64 %29, ptr %6, align 8, !tbaa !6
  store i64 %29, ptr %9, align 8, !tbaa !6
  call void @llvm.lifetime.end.p0(i64 40, ptr %8) #23
  %30 = load i64, ptr %6, align 8, !tbaa !6
  %31 = load i64, ptr %4, align 8, !tbaa !6
  %32 = sub nsw i64 %30, %31
  store i64 %32, ptr %7, align 8, !tbaa !6
  %33 = load i64, ptr %7, align 8, !tbaa !6
  %34 = icmp sgt i64 %33, 0
  br i1 %34, label %35, label %42

35:                                               ; preds = %21
  %36 = load ptr, ptr %5, align 8, !tbaa !19
  %37 = load ptr, ptr %5, align 8, !tbaa !19
  %38 = load i64, ptr %4, align 8, !tbaa !6
  %39 = getelementptr inbounds i8, ptr %37, i64 %38
  %40 = load i64, ptr %7, align 8, !tbaa !6
  %41 = call ptr @memmove.inline(ptr noundef %36, ptr noundef %39, i64 noundef %40) #23
  br label %42

42:                                               ; preds = %35, %21
  %43 = load i64, ptr %7, align 8, !tbaa !6
  %44 = icmp slt i64 %43, 0
  br i1 %44, label %45, label %46

45:                                               ; preds = %42
  store i64 0, ptr %7, align 8, !tbaa !6
  br label %46

46:                                               ; preds = %45, %42
  %47 = load ptr, ptr %3, align 8, !tbaa !21
  %48 = getelementptr inbounds nuw %struct.zstream, ptr %47, i32 0, i32 2
  %49 = load i64, ptr %48, align 8, !tbaa !28
  %50 = load i64, ptr %7, align 8, !tbaa !6
  %51 = call i64 @rb_str_resize(i64 noundef %49, i64 noundef %50)
  %52 = load i64, ptr %7, align 8, !tbaa !6
  %53 = icmp eq i64 %52, 0
  br i1 %53, label %54, label %57

54:                                               ; preds = %46
  %55 = load ptr, ptr %3, align 8, !tbaa !21
  %56 = getelementptr inbounds nuw %struct.zstream, ptr %55, i32 0, i32 2
  store i64 4, ptr %56, align 8, !tbaa !28
  br label %62

57:                                               ; preds = %46
  %58 = load ptr, ptr %3, align 8, !tbaa !21
  %59 = getelementptr inbounds nuw %struct.zstream, ptr %58, i32 0, i32 2
  %60 = load i64, ptr %59, align 8, !tbaa !28
  %61 = load i64, ptr %7, align 8, !tbaa !6
  call void @rb_str_set_len(i64 noundef %60, i64 noundef %61)
  br label %62

62:                                               ; preds = %57, %54
  call void @llvm.lifetime.end.p0(i64 8, ptr %7) #23
  call void @llvm.lifetime.end.p0(i64 8, ptr %6) #23
  call void @llvm.lifetime.end.p0(i64 8, ptr %5) #23
  br label %88

63:                                               ; preds = %15
  %64 = load ptr, ptr %3, align 8, !tbaa !21
  %65 = getelementptr inbounds nuw %struct.zstream, ptr %64, i32 0, i32 2
  %66 = load i64, ptr %65, align 8, !tbaa !28
  %67 = call i64 @RSTRING_LEN(i64 noundef %66) #25
  %68 = load i64, ptr %4, align 8, !tbaa !6
  %69 = icmp sle i64 %67, %68
  br i1 %69, label %70, label %73

70:                                               ; preds = %63
  %71 = load ptr, ptr %3, align 8, !tbaa !21
  %72 = getelementptr inbounds nuw %struct.zstream, ptr %71, i32 0, i32 2
  store i64 4, ptr %72, align 8, !tbaa !28
  br label %87

73:                                               ; preds = %63
  %74 = load ptr, ptr %3, align 8, !tbaa !21
  %75 = getelementptr inbounds nuw %struct.zstream, ptr %74, i32 0, i32 2
  %76 = load i64, ptr %75, align 8, !tbaa !28
  %77 = load i64, ptr %4, align 8, !tbaa !6
  %78 = load ptr, ptr %3, align 8, !tbaa !21
  %79 = getelementptr inbounds nuw %struct.zstream, ptr %78, i32 0, i32 2
  %80 = load i64, ptr %79, align 8, !tbaa !28
  %81 = call i64 @RSTRING_LEN(i64 noundef %80) #25
  %82 = load i64, ptr %4, align 8, !tbaa !6
  %83 = sub nsw i64 %81, %82
  %84 = call i64 @rb_str_subseq(i64 noundef %76, i64 noundef %77, i64 noundef %83)
  %85 = load ptr, ptr %3, align 8, !tbaa !21
  %86 = getelementptr inbounds nuw %struct.zstream, ptr %85, i32 0, i32 2
  store i64 %84, ptr %86, align 8, !tbaa !28
  br label %87

87:                                               ; preds = %73, %70
  br label %88

88:                                               ; preds = %87, %62
  br label %89

89:                                               ; preds = %88, %14
  ret void
}