; Function Attrs: nounwind sspstrong uwtable
define internal fastcc void @zstream_discard_input(ptr noundef captures(none) %0, i64 noundef %1) unnamed_addr #0 {
  %3 = getelementptr inbounds nuw i8, ptr %0, i64 16
  %4 = load i64, ptr %3, align 8, !tbaa !51
  %5 = icmp eq i64 %4, 4
  br i1 %5, label %34, label %6

6:                                                ; preds = %2
  %7 = inttoptr i64 %4 to ptr
  %8 = getelementptr inbounds nuw i8, ptr %7, i64 8
  %9 = load i64, ptr %8, align 8, !tbaa !60
  %10 = icmp eq i64 %9, 0
  br i1 %10, label %11, label %27

11:                                               ; preds = %6
  %12 = load i64, ptr %7, align 8, !tbaa !16, !noalias !248
  %13 = and i64 %12, 8192
  %.not.i = icmp eq i64 %13, 0
  %14 = getelementptr inbounds nuw i8, ptr %7, i64 24
  br i1 %.not.i, label %rbimpl_rstring_getmem.exit, label %15

15:                                               ; preds = %11
  %.sroa.5.0.copyload = load ptr, ptr %14, align 8
  br label %rbimpl_rstring_getmem.exit

rbimpl_rstring_getmem.exit:                       ; preds = %11, %15
  %.sroa.5.0 = phi ptr [ %.sroa.5.0.copyload, %15 ], [ %14, %11 ]
  %.sroa.3.0.in = getelementptr inbounds nuw i8, ptr %7, i64 16
  %.sroa.3.0 = load i64, ptr %.sroa.3.0.in, align 8, !tbaa !6
  %16 = sub nsw i64 %.sroa.3.0, %1
  %17 = icmp sgt i64 %16, 0
  br i1 %17, label %18, label %20

18:                                               ; preds = %rbimpl_rstring_getmem.exit
  %19 = getelementptr inbounds i8, ptr %.sroa.5.0, i64 %1
  tail call void @llvm.memmove.p0.p0.i64(ptr noundef nonnull align 1 %.sroa.5.0, ptr noundef nonnull align 1 %19, i64 noundef %16, i1 noundef false) #18
  %.pre = load i64, ptr %3, align 8, !tbaa !51
  br label %20

20:                                               ; preds = %18, %rbimpl_rstring_getmem.exit
  %21 = phi i64 [ %.pre, %18 ], [ %4, %rbimpl_rstring_getmem.exit ]
  %spec.store.select = tail call i64 @llvm.smax.i64(i64 %16, i64 0)
  %22 = tail call i64 @rb_str_resize(i64 noundef %21, i64 noundef %spec.store.select) #18
  %23 = icmp slt i64 %16, 1
  br i1 %23, label %24, label %25

24:                                               ; preds = %20
  store i64 4, ptr %3, align 8, !tbaa !51
  br label %34

25:                                               ; preds = %20
  %26 = load i64, ptr %3, align 8, !tbaa !51
  tail call void @rb_str_set_len(i64 noundef %26, i64 noundef %spec.store.select) #18
  br label %34

27:                                               ; preds = %6
  %28 = getelementptr inbounds nuw i8, ptr %7, i64 16
  %29 = load i64, ptr %28, align 8, !tbaa !21
  %.not = icmp sgt i64 %29, %1
  br i1 %.not, label %31, label %30

30:                                               ; preds = %27
  store i64 4, ptr %3, align 8, !tbaa !51
  br label %34

31:                                               ; preds = %27
  %32 = sub nsw i64 %29, %1
  %33 = tail call i64 @rb_str_subseq(i64 noundef %4, i64 noundef %1, i64 noundef %32) #18
  store i64 %33, ptr %3, align 8, !tbaa !51
  br label %34

34:                                               ; preds = %24, %25, %31, %30, %2
  ret void
}